target datalayout = "e-m:e-p270:32:32-p271:32:32-p272:64:64-i64:64-i128:128-f80:128-n8:16:32:64-S128"
target triple = "x86_64-unknown-linux-gnu"

; Function Attrs: nounwind sspstrong uwtable
define internal i64 @pci_vga_ioport_read(ptr noundef %ptr, i64 noundef %addr, i32 noundef %size) #0 {
entry:
  %ptr.addr = alloca ptr, align 8
  %addr.addr = alloca i64, align 8
  %size.addr = alloca i32, align 4
  %s = alloca ptr, align 8
  %ret = alloca i64, align 8
  store ptr %ptr, ptr %ptr.addr, align 8
  store i64 %addr, ptr %addr.addr, align 8
  store i32 %size, ptr %size.addr, align 4
  %0 = load ptr, ptr %ptr.addr, align 8
  store ptr %0, ptr %s, align 8
  store i64 0, ptr %ret, align 8
  %1 = load i32, ptr %size.addr, align 4
  switch i32 %1, label %sw.epilog [
    i32 1, label %sw.bb
    i32 2, label %sw.bb2
  ]

sw.bb:                                            ; preds = %entry
  %2 = load ptr, ptr %s, align 8
  %3 = load i64, ptr %addr.addr, align 8
  %add = add i64 %3, 960
  %conv = trunc i64 %add to i32
  %call = call i32 @vga_ioport_read(ptr noundef %2, i32 noundef %conv)
  %conv1 = zext i32 %call to i64
  store i64 %conv1, ptr %ret, align 8
  br label %sw.epilog

sw.bb2:                                           ; preds = %entry
  %4 = load ptr, ptr %s, align 8
  %5 = load i64, ptr %addr.addr, align 8
  %add3 = add i64 %5, 960
  %conv4 = trunc i64 %add3 to i32
  %call5 = call i32 @vga_ioport_read(ptr noundef %4, i32 noundef %conv4)
  %conv6 = zext i32 %call5 to i64
  store i64 %conv6, ptr %ret, align 8
  %6 = load ptr, ptr %s, align 8
  %7 = load i64, ptr %addr.addr, align 8
  %add7 = add i64 %7, 961
  %conv8 = trunc i64 %add7 to i32
  %call9 = call i32 @vga_ioport_read(ptr noundef %6, i32 noundef %conv8)
  %shl = shl i32 %call9, 8
  %conv10 = zext i32 %shl to i64
  %8 = load i64, ptr %ret, align 8
  %or = or i64 %8, %conv10
  store i64 %or, ptr %ret, align 8
  br label %sw.epilog

sw.epilog:                                        ; preds = %sw.bb2, %sw.bb, %entry
  %9 = load i64, ptr %ret, align 8
  ret i64 %9
}