; Function Attrs: nounwind sspstrong uwtable
define internal range(i64 0, 4294967296) i64 @pci_vga_ioport_read(ptr noundef %ptr, i64 noundef %addr, i32 noundef %size) #0 {
entry:
  switch i32 %size, label %sw.epilog [
    i32 1, label %sw.bb
    i32 2, label %sw.bb2
  ]

sw.bb:                                            ; preds = %entry
  %0 = trunc i64 %addr to i32
  %conv = add i32 %0, 960
  %call = tail call i32 @vga_ioport_read(ptr noundef %ptr, i32 noundef %conv) #4
  br label %sw.epilog

sw.bb2:                                           ; preds = %entry
  %1 = trunc i64 %addr to i32
  %conv4 = add i32 %1, 960
  %call5 = tail call i32 @vga_ioport_read(ptr noundef %ptr, i32 noundef %conv4) #4
  %conv8 = add i32 %1, 961
  %call9 = tail call i32 @vga_ioport_read(ptr noundef %ptr, i32 noundef %conv8) #4
  %shl = shl i32 %call9, 8
  %or6 = or i32 %shl, %call5
  br label %sw.epilog

sw.epilog:                                        ; preds = %sw.bb2, %sw.bb, %entry
  %ret.0.shrunk = phi i32 [ 0, %entry ], [ %or6, %sw.bb2 ], [ %call, %sw.bb ]
  %ret.0 = zext i32 %ret.0.shrunk to i64
  ret i64 %ret.0
}